EXPORTS

?CreateID@@YAIPBD@Z
?EulerMatrix@@YA?AVMatrix@@ABVVector@@@Z
?GetCostumeDescriptions@@YAPBVCostumeDescriptions@@XZ
?GetUserDataPath@@YA_NQAD@Z
?LookMatrixYup@@YA?AVMatrix@@ABVVector@@@Z
?SinglePlayer@@YA_NXZ
?arch_is_combinable@@YA_NI@Z

?Add@AnimDB@@YAXH@Z
?Rem@AnimDB@@YAXH@Z

?GetEquipment@Archetype@@YAPAUEquipment@1@I@Z
?GetShip@Archetype@@YAPAUShip@1@I@Z
?GetSolar@Archetype@@YAPAUSolar@1@I@Z
?LoadShips@Archetype@@YAHPBD_NPAUICliObjFactory@1@@Z

?get_group_by_id@EqObj@Archetype@@QBEPBUCollisionGroup@2@G@Z
?get_group_by_name@EqObj@Archetype@@QBEPBUCollisionGroup@2@ABUCacheString@@@Z

?find_costume@CostumeDescriptions@@QBEPBUcostume@@K@Z
?get_costume@CostumeDescriptions@@QBEXHAAUCostume@@@Z

?close_bay@CShip@@QAEMXZ
?get_target@CShip@@QBEPAUIObjRW@@XZ
?open_bay@CShip@@QAEMXZ

?CRUISE_ACCEL_TIME@EngineEquipConsts@@3MA
?CRUISING_SPEED@EngineEquipConsts@@3MA

??0EquipDesc@@QAE@ABU0@@Z
??0EquipDesc@@QAE@XZ
??4EquipDesc@@QAEAAU0@ABU0@@Z
??8EquipDesc@@QBE_NABU0@@Z
??9EquipDesc@@QBE_NABU0@@Z
??MEquipDesc@@QBE_NABU0@@Z
??OEquipDesc@@QBE_NABU0@@Z
?CARGO_BAY_HP_NAME@EquipDesc@@2UCacheString@@B
?get_arch_id@EquipDesc@@QBEIXZ
?get_cargo_space_occupied@EquipDesc@@QBEMXZ
?get_count@EquipDesc@@QBEHXZ
?get_hardpoint@EquipDesc@@QBEABUCacheString@@XZ
?get_id@EquipDesc@@QBEGXZ
?get_owner@EquipDesc@@QBEHXZ
?get_status@EquipDesc@@QBEMXZ
?get_temporary@EquipDesc@@QBE_NXZ
?is_equipped@EquipDesc@@QBE_NXZ
?is_internal@EquipDesc@@QBE_NXZ
?make_internal@EquipDesc@@QAEXXZ
?set_arch_id@EquipDesc@@QAEXI@Z
?set_count@EquipDesc@@QAEXH@Z
?set_equipped@EquipDesc@@QAEX_N@Z
?set_hardpoint@EquipDesc@@QAEXABUCacheString@@@Z
?set_id@EquipDesc@@QAEXG@Z
?set_owner@EquipDesc@@QAEXH@Z
?set_status@EquipDesc@@QAEXM@Z
?set_temporary@EquipDesc@@QAEX_N@Z

??0?$vector@UEquipDesc@@V?$allocator@UEquipDesc@@@std@@@std@@QAE@ABV01@@Z
??0?$vector@UEquipDesc@@V?$allocator@UEquipDesc@@@std@@@std@@QAE@ABV?$allocator@UEquipDesc@@@1@@Z
??0?$vector@UEquipDesc@@V?$allocator@UEquipDesc@@@std@@@std@@QAE@IABUEquipDesc@@ABV?$allocator@UEquipDesc@@@1@@Z
??0?$vector@UEquipDesc@@V?$allocator@UEquipDesc@@@std@@@std@@QAE@PBUEquipDesc@@0ABV?$allocator@UEquipDesc@@@1@@Z
??1?$vector@UEquipDesc@@V?$allocator@UEquipDesc@@@std@@@std@@QAE@XZ
??4?$vector@UEquipDesc@@V?$allocator@UEquipDesc@@@std@@@std@@QAEAAV01@ABV01@@Z
??A?$vector@UEquipDesc@@V?$allocator@UEquipDesc@@@std@@@std@@QAEAAUEquipDesc@@I@Z
??A?$vector@UEquipDesc@@V?$allocator@UEquipDesc@@@std@@@std@@QBEABUEquipDesc@@I@Z
??_F?$vector@UEquipDesc@@V?$allocator@UEquipDesc@@@std@@@std@@QAEXXZ
?_Destroy@?$vector@UEquipDesc@@V?$allocator@UEquipDesc@@@std@@@std@@IAEXPAUEquipDesc@@0@Z
?_Eq@?$vector@UEquipDesc@@V?$allocator@UEquipDesc@@@std@@@std@@QBE_NABV12@@Z
?_Lt@?$vector@UEquipDesc@@V?$allocator@UEquipDesc@@@std@@@std@@QBE_NABV12@@Z
?_Ucopy@?$vector@UEquipDesc@@V?$allocator@UEquipDesc@@@std@@@std@@IAEPAUEquipDesc@@PBU3@0PAU3@@Z
?_Ufill@?$vector@UEquipDesc@@V?$allocator@UEquipDesc@@@std@@@std@@IAEXPAUEquipDesc@@IABU3@@Z
?_Xran@?$vector@UEquipDesc@@V?$allocator@UEquipDesc@@@std@@@std@@IBEXXZ
?assign@?$vector@UEquipDesc@@V?$allocator@UEquipDesc@@@std@@@std@@QAEXIABUEquipDesc@@@Z
?assign@?$vector@UEquipDesc@@V?$allocator@UEquipDesc@@@std@@@std@@QAEXPBUEquipDesc@@0@Z
?at@?$vector@UEquipDesc@@V?$allocator@UEquipDesc@@@std@@@std@@QAEAAUEquipDesc@@I@Z
?at@?$vector@UEquipDesc@@V?$allocator@UEquipDesc@@@std@@@std@@QBEABUEquipDesc@@I@Z
?back@?$vector@UEquipDesc@@V?$allocator@UEquipDesc@@@std@@@std@@QAEAAUEquipDesc@@XZ
?back@?$vector@UEquipDesc@@V?$allocator@UEquipDesc@@@std@@@std@@QBEABUEquipDesc@@XZ
?begin@?$vector@UEquipDesc@@V?$allocator@UEquipDesc@@@std@@@std@@QAEPAUEquipDesc@@XZ
?begin@?$vector@UEquipDesc@@V?$allocator@UEquipDesc@@@std@@@std@@QBEPBUEquipDesc@@XZ
?capacity@?$vector@UEquipDesc@@V?$allocator@UEquipDesc@@@std@@@std@@QBEIXZ
?clear@?$vector@UEquipDesc@@V?$allocator@UEquipDesc@@@std@@@std@@QAEXXZ
?empty@?$vector@UEquipDesc@@V?$allocator@UEquipDesc@@@std@@@std@@QBE_NXZ
?end@?$vector@UEquipDesc@@V?$allocator@UEquipDesc@@@std@@@std@@QAEPAUEquipDesc@@XZ
?end@?$vector@UEquipDesc@@V?$allocator@UEquipDesc@@@std@@@std@@QBEPBUEquipDesc@@XZ
?erase@?$vector@UEquipDesc@@V?$allocator@UEquipDesc@@@std@@@std@@QAEPAUEquipDesc@@PAU3@0@Z
?erase@?$vector@UEquipDesc@@V?$allocator@UEquipDesc@@@std@@@std@@QAEPAUEquipDesc@@PAU3@@Z
?front@?$vector@UEquipDesc@@V?$allocator@UEquipDesc@@@std@@@std@@QAEAAUEquipDesc@@XZ
?front@?$vector@UEquipDesc@@V?$allocator@UEquipDesc@@@std@@@std@@QBEABUEquipDesc@@XZ
?get_allocator@?$vector@UEquipDesc@@V?$allocator@UEquipDesc@@@std@@@std@@QBE?AV?$allocator@UEquipDesc@@@2@XZ
?insert@?$vector@UEquipDesc@@V?$allocator@UEquipDesc@@@std@@@std@@QAEPAUEquipDesc@@PAU3@ABU3@@Z
?insert@?$vector@UEquipDesc@@V?$allocator@UEquipDesc@@@std@@@std@@QAEXPAUEquipDesc@@IABU3@@Z
?insert@?$vector@UEquipDesc@@V?$allocator@UEquipDesc@@@std@@@std@@QAEXPAUEquipDesc@@PBU3@1@Z
?max_size@?$vector@UEquipDesc@@V?$allocator@UEquipDesc@@@std@@@std@@QBEIXZ
?pop_back@?$vector@UEquipDesc@@V?$allocator@UEquipDesc@@@std@@@std@@QAEXXZ
?push_back@?$vector@UEquipDesc@@V?$allocator@UEquipDesc@@@std@@@std@@QAEXABUEquipDesc@@@Z
?rbegin@?$vector@UEquipDesc@@V?$allocator@UEquipDesc@@@std@@@std@@QAE?AV?$reverse_iterator@PAUEquipDesc@@U1@AAU1@PAU1@H@2@XZ
?rbegin@?$vector@UEquipDesc@@V?$allocator@UEquipDesc@@@std@@@std@@QBE?AV?$reverse_iterator@PBUEquipDesc@@U1@ABU1@PBU1@H@2@XZ
?rend@?$vector@UEquipDesc@@V?$allocator@UEquipDesc@@@std@@@std@@QAE?AV?$reverse_iterator@PAUEquipDesc@@U1@AAU1@PAU1@H@2@XZ
?rend@?$vector@UEquipDesc@@V?$allocator@UEquipDesc@@@std@@@std@@QBE?AV?$reverse_iterator@PBUEquipDesc@@U1@ABU1@PBU1@H@2@XZ
?reserve@?$vector@UEquipDesc@@V?$allocator@UEquipDesc@@@std@@@std@@QAEXI@Z
?resize@?$vector@UEquipDesc@@V?$allocator@UEquipDesc@@@std@@@std@@QAEXIABUEquipDesc@@@Z
?size@?$vector@UEquipDesc@@V?$allocator@UEquipDesc@@@std@@@std@@QBEIXZ
?swap@?$vector@UEquipDesc@@V?$allocator@UEquipDesc@@@std@@@std@@QAEXAAV12@@Z

??0EquipDescVector@@QAE@ABU0@@Z
??0EquipDescVector@@QAE@ABVEquipDescList@@@Z
??0EquipDescVector@@QAE@XZ
??1EquipDescVector@@QAE@XZ
??4EquipDescVector@@QAEAAU0@ABU0@@Z
?add_equipment_item@EquipDescVector@@QAEHABUEquipDesc@@_N@Z
?append@EquipDescVector@@QAEXABU1@@Z
?traverse_equipment_type@EquipDescVector@@QAEPAUEquipDesc@@IPBU2@@Z

??1FmtStr@@QAE@XZ
?append_string@FmtStr@@QAEXI@Z
?begin_mad_lib@FmtStr@@QAEXI@Z
?end_mad_lib@FmtStr@@QAEXXZ

??0INI_Reader@@QAE@XZ
??1INI_Reader@@QAE@XZ
?close@INI_Reader@@QAEXXZ
?get_line_ptr@INI_Reader@@QAEPBDXZ
?get_num_parameters@INI_Reader@@QBEIXZ
?get_value_bool@INI_Reader@@QAE_NI@Z
?get_value_float@INI_Reader@@QAEMI@Z
?get_value_int@INI_Reader@@QAEHI@Z
?get_value_string@INI_Reader@@QAEPBDI@Z
?get_value_string@INI_Reader@@QAEPBDXZ
?is_header@INI_Reader@@QAE_NPBD@Z
?is_value@INI_Reader@@QAE_NPBD@Z
?is_value_empty@INI_Reader@@QAE_NI@Z
?open@INI_Reader@@QAE_NPBD_N@Z
?read_header@INI_Reader@@QAE_NXZ
?read_value@INI_Reader@@QAE_NXZ

?ReadCargoLine@Loadout@@YA_NAAVINI_Reader@@AAUEquipDesc@@@Z
?ReadEquipLine@Loadout@@YA_NAAVINI_Reader@@AAUEquipDesc@@@Z

?ANOM_LIMITS_MAX_VELOCITY@PhySys@@3MA

?get_info_card@Reputation@@YAII@Z

?GetFirstBase@Universe@@YAPAUIBase@1@XZ
?GetFirstSystem@Universe@@YAPAUISystem@1@XZ
?GetNextBase@Universe@@YAPAUIBase@1@XZ
?GetNextSystem@Universe@@YAPAUISystem@1@XZ
?get_base@Universe@@YAPAUIBase@1@I@Z
?get_system@Universe@@YAPBUISystem@1@I@Z
