EXPORTS

?Players@@3VPlayerDB@@A

?Save@pub@@YAHII@Z

?AdjustCash@Player@pub@@YAHABIH@Z
?ForceLand@Player@pub@@YAHII@Z
?GetAssetValue@Player@pub@@YAHABIAAM@Z
?GetBase@Player@pub@@YAHABIAAI@Z
?GetRep@Player@pub@@YAHABIAAH@Z
?GetShip@Player@pub@@YAHABIAAI@Z
?GetShipID@Player@pub@@YAHABIAAI@Z
?GetSystem@Player@pub@@YAHABIAAI@Z
?InspectCash@Player@pub@@YAHABIAAH@Z
?MarkObj@Player@pub@@YAHIIH@Z
?PopUpDialog@Player@pub@@YAHIABUFmtStr@@0I@Z
?RevertCamera@Player@pub@@YAHI@Z
?SetMonkey@Player@pub@@YAHI@Z
?SetRobot@Player@pub@@YAHI@Z
?SetShipAndLoadout@Player@pub@@YAHABIIABUEquipDescVector@@@Z
?SetTrent@Player@pub@@YAHI@Z

?EnumerateGroups@Reputation@pub@@YAHAAUEnumerator@12@@Z
?GetReputation@Reputation@pub@@YAHABHABIAAM@Z
?GetReputation@Reputation@pub@@YAHABI0AAM@Z
?GetReputationGroup@Reputation@pub@@YAHAAIPBD@Z
?GetShortGroupName@Reputation@pub@@YAHABIAAI@Z
?SetReputation@Reputation@pub@@YAHABHABIM@Z

?Destroy@SpaceObj@pub@@YAHIW4DestroyType@@@Z
?DrainShields@SpaceObj@pub@@YAHI@Z
?GetBurnRadius@SpaceObj@pub@@YAHABIAAMAAVVector@@@Z
?GetLocation@SpaceObj@pub@@YAHIAAVVector@@AAVMatrix@@@Z
?GetRadius@SpaceObj@pub@@YAHABIAAMAAVVector@@@Z
?GetSolarArchetypeID@SpaceObj@pub@@YAHIAAI@Z
?GetSystem@SpaceObj@pub@@YAHIAAI@Z
?GetTarget@SpaceObj@pub@@YAHABIAAI@Z
?GetType@SpaceObj@pub@@YAHIAAI@Z
?IsPosEmpty@SpaceObj@pub@@YAHABIABVVector@@ABMAA_N@Z
?Relocate@SpaceObj@pub@@YAHABI0ABVVector@@ABVMatrix@@@Z

?EnumerateObjects@System@pub@@YAHABIAAUSysObjEnumerator@12@@Z
